target datalayout = "e-m:e-p270:32:32-p271:32:32-p272:64:64-i64:64-i128:128-f80:128-n8:16:32:64-S128"
target triple = "x86_64-pc-linux-gnu"

%"class.std::ios_base" = type { ptr, i64, i64, i32, i32, i32, ptr, %"struct.std::ios_base::_Words", [8 x %"struct.std::ios_base::_Words"], i32, ptr, %"class.std::locale" }
%"struct.std::ios_base::_Words" = type { ptr, i64 }
%"class.std::locale" = type { ptr }
%"class.dd::simplifier" = type { ptr }

@_ZTIN2dd11pdd_manager7mem_outE = linkonce_odr hidden constant { ptr, ptr } { ptr getelementptr inbounds (ptr, ptr @_ZTVN10__cxxabiv117__class_type_infoE, i64 2), ptr @_ZTSN2dd11pdd_manager7mem_outE }, comdat, align 8
@.str = private unnamed_addr constant [19 x i8] c"simplifier memout\0A\00", align 1

; Function Attrs: inlinehint mustprogress nounwind uwtable
define linkonce_odr noundef i32 @_ZStorSt12_Ios_IostateS_(i32 noundef %0, i32 noundef %1) #10 comdat {
  %3 = alloca i32, align 4
  %4 = alloca i32, align 4
  store i32 %0, ptr %3, align 4, !tbaa !329
  store i32 %1, ptr %4, align 4, !tbaa !329
  %5 = load i32, ptr %3, align 4, !tbaa !329
  %6 = load i32, ptr %4, align 4, !tbaa !329
  %7 = or i32 %5, %6
  ret i32 %7
}

; Function Attrs: mustprogress nounwind uwtable
define available_externally noundef i32 @_ZNKSt9basic_iosIcSt11char_traitsIcEE7rdstateEv(ptr noundef nonnull align 8 dereferenceable(264) %0) #9 align 2 {
  %2 = alloca ptr, align 8
  store ptr %0, ptr %2, align 8, !tbaa !327
  %3 = load ptr, ptr %2, align 8
  %4 = getelementptr inbounds nuw %"class.std::ios_base", ptr %3, i32 0, i32 5
  %5 = load i32, ptr %4, align 8, !tbaa !331
  ret i32 %5
}

; Function Attrs: mustprogress nounwind uwtable
define linkonce_odr hidden noundef i64 @_ZNSt11char_traitsIcE6lengthEPKc(ptr noundef %0) #9 comdat align 2 {
  %2 = alloca ptr, align 8
  store ptr %0, ptr %2, align 8, !tbaa !57
  %3 = load ptr, ptr %2, align 8, !tbaa !57
  %4 = call i64 @strlen(ptr noundef %3) #3
  ret i64 %4
}

; Function Attrs: mustprogress uwtable
define available_externally void @_ZNSt9basic_iosIcSt11char_traitsIcEE8setstateESt12_Ios_Iostate(ptr noundef nonnull align 8 dereferenceable(264) %0, i32 noundef %1) #4 align 2 {
  %3 = alloca ptr, align 8
  %4 = alloca i32, align 4
  store ptr %0, ptr %3, align 8, !tbaa !327
  store i32 %1, ptr %4, align 4, !tbaa !329
  %5 = load ptr, ptr %3, align 8
  %6 = call noundef i32 @_ZNKSt9basic_iosIcSt11char_traitsIcEE7rdstateEv(ptr noundef nonnull align 8 dereferenceable(264) %5)
  %7 = load i32, ptr %4, align 4, !tbaa !329
  %8 = call noundef i32 @_ZStorSt12_Ios_IostateS_(i32 noundef %6, i32 noundef %7)
  call void @_ZNSt9basic_iosIcSt11char_traitsIcEE5clearESt12_Ios_Iostate(ptr noundef nonnull align 8 dereferenceable(264) %5, i32 noundef %8)
  ret void
}

; Function Attrs: inlinehint mustprogress uwtable
define available_externally noundef nonnull align 8 dereferenceable(8) ptr @_ZStlsISt11char_traitsIcEERSt13basic_ostreamIcT_ES5_PKc(ptr noundef nonnull align 8 dereferenceable(8) %0, ptr noundef %1) #7 {
  %3 = alloca ptr, align 8
  %4 = alloca ptr, align 8
  store ptr %0, ptr %3, align 8, !tbaa !55
  store ptr %1, ptr %4, align 8, !tbaa !57
  %5 = load ptr, ptr %4, align 8, !tbaa !57
  %6 = icmp ne ptr %5, null
  br i1 %6, label %13, label %7

7:                                                ; preds = %2
  %8 = load ptr, ptr %3, align 8, !tbaa !55
  %9 = load ptr, ptr %8, align 8, !tbaa !59
  %10 = getelementptr i8, ptr %9, i64 -24
  %11 = load i64, ptr %10, align 8
  %12 = getelementptr inbounds i8, ptr %8, i64 %11
  call void @_ZNSt9basic_iosIcSt11char_traitsIcEE8setstateESt12_Ios_Iostate(ptr noundef nonnull align 8 dereferenceable(264) %12, i32 noundef 1)
  br label %19

13:                                               ; preds = %2
  %14 = load ptr, ptr %3, align 8, !tbaa !55
  %15 = load ptr, ptr %4, align 8, !tbaa !57
  %16 = load ptr, ptr %4, align 8, !tbaa !57
  %17 = call noundef i64 @_ZNSt11char_traitsIcE6lengthEPKc(ptr noundef %16)
  %18 = call noundef nonnull align 8 dereferenceable(8) ptr @_ZSt16__ostream_insertIcSt11char_traitsIcEERSt13basic_ostreamIT_T0_ES6_PKS3_l(ptr noundef nonnull align 8 dereferenceable(8) %14, ptr noundef %15, i64 noundef %17)
  br label %19

19:                                               ; preds = %13, %7
  %20 = load ptr, ptr %3, align 8, !tbaa !55
  ret ptr %20
}

; Function Attrs: mustprogress uwtable
define hidden void @_ZN2dd10simplifierclEv(ptr noundef nonnull align 8 dereferenceable(8) %0) #4 align 2 personality ptr @__gxx_personality_v0 {
  %2 = alloca ptr, align 8
  %3 = alloca ptr, align 8
  %4 = alloca i32, align 4
  store ptr %0, ptr %2, align 8, !tbaa !3
  %5 = load ptr, ptr %2, align 8
  br label %6

6:                                                ; preds = %34, %1
  %7 = getelementptr inbounds nuw %"class.dd::simplifier", ptr %5, i32 0, i32 0
  %8 = load ptr, ptr %7, align 8, !tbaa !8
  %9 = invoke noundef zeroext i1 @_ZN2dd6solver4doneEv(ptr noundef nonnull align 8 dereferenceable(208) %8)
          to label %10 unwind label %35

10:                                               ; preds = %6
  br i1 %9, label %32, label %11

11:                                               ; preds = %10
  %12 = invoke noundef zeroext i1 @_ZN2dd10simplifier20simplify_linear_stepEb(ptr noundef nonnull align 8 dereferenceable(8) %5, i1 noundef zeroext true)
          to label %13 unwind label %35

13:                                               ; preds = %11
  br i1 %12, label %30, label %14

14:                                               ; preds = %13
  %15 = invoke noundef zeroext i1 @_ZN2dd10simplifier23simplify_elim_pure_stepEv(ptr noundef nonnull align 8 dereferenceable(8) %5)
          to label %16 unwind label %35

16:                                               ; preds = %14
  br i1 %15, label %30, label %17

17:                                               ; preds = %16
  %18 = invoke noundef zeroext i1 @_ZN2dd10simplifier16simplify_cc_stepEv(ptr noundef nonnull align 8 dereferenceable(8) %5)
          to label %19 unwind label %35

19:                                               ; preds = %17
  br i1 %18, label %30, label %20

20:                                               ; preds = %19
  %21 = invoke noundef zeroext i1 @_ZN2dd10simplifier18simplify_leaf_stepEv(ptr noundef nonnull align 8 dereferenceable(8) %5)
          to label %22 unwind label %35

22:                                               ; preds = %20
  br i1 %21, label %30, label %23

23:                                               ; preds = %22
  %24 = invoke noundef zeroext i1 @_ZN2dd10simplifier20simplify_linear_stepEb(ptr noundef nonnull align 8 dereferenceable(8) %5, i1 noundef zeroext false)
          to label %25 unwind label %35

25:                                               ; preds = %23
  br i1 %24, label %30, label %26

26:                                               ; preds = %25
  %27 = invoke noundef zeroext i1 @_ZN2dd10simplifier14simplify_exlinEv(ptr noundef nonnull align 8 dereferenceable(8) %5)
          to label %28 unwind label %35

28:                                               ; preds = %26
  br i1 %27, label %30, label %29

29:                                               ; preds = %28
  br label %30

30:                                               ; preds = %29, %28, %25, %22, %19, %16, %13
  %31 = phi i1 [ true, %28 ], [ true, %25 ], [ true, %22 ], [ true, %19 ], [ true, %16 ], [ true, %13 ], [ false, %29 ]
  br label %32

32:                                               ; preds = %30, %10
  %33 = phi i1 [ false, %10 ], [ %31, %30 ]
  br i1 %33, label %34, label %59

34:                                               ; preds = %32
  br label %6, !llvm.loop !11

35:                                               ; preds = %26, %23, %20, %17, %14, %11, %6
  %36 = landingpad { ptr, i32 }
          catch ptr @_ZTIN2dd11pdd_manager7mem_outE
  %37 = extractvalue { ptr, i32 } %36, 0
  store ptr %37, ptr %3, align 8
  %38 = extractvalue { ptr, i32 } %36, 1
  store i32 %38, ptr %4, align 4
  br label %39

39:                                               ; preds = %35
  %40 = load i32, ptr %4, align 4
  %41 = call i32 @llvm.eh.typeid.for.p0(ptr @_ZTIN2dd11pdd_manager7mem_outE) #3
  %42 = icmp eq i32 %40, %41
  br i1 %42, label %43, label %73

43:                                               ; preds = %39
  %44 = load ptr, ptr %3, align 8
  %45 = call ptr @__cxa_begin_catch(ptr %44) #3
  %46 = invoke noundef i32 @_Z19get_verbosity_levelv()
          to label %47 unwind label %60

47:                                               ; preds = %43
  %48 = icmp uge i32 %46, 1
  br i1 %48, label %49, label %70

49:                                               ; preds = %47
  %50 = invoke noundef zeroext i1 @_Z11is_threadedv()
          to label %51 unwind label %60

51:                                               ; preds = %49
  br i1 %50, label %52, label %64

52:                                               ; preds = %51
  invoke void @_Z12verbose_lockv()
          to label %53 unwind label %60

53:                                               ; preds = %52
  %54 = invoke noundef nonnull align 8 dereferenceable(8) ptr @_Z14verbose_streamv()
          to label %55 unwind label %60

55:                                               ; preds = %53
  %56 = invoke noundef nonnull align 8 dereferenceable(8) ptr @_ZStlsISt11char_traitsIcEERSt13basic_ostreamIcT_ES5_PKc(ptr noundef nonnull align 8 dereferenceable(8) %54, ptr noundef @.str)
          to label %57 unwind label %60

57:                                               ; preds = %55
  invoke void @_Z14verbose_unlockv()
          to label %58 unwind label %60

58:                                               ; preds = %57
  br label %69

59:                                               ; preds = %32
  br label %71

60:                                               ; preds = %66, %64, %57, %55, %53, %52, %49, %43
  %61 = landingpad { ptr, i32 }
          cleanup
  %62 = extractvalue { ptr, i32 } %61, 0
  store ptr %62, ptr %3, align 8
  %63 = extractvalue { ptr, i32 } %61, 1
  store i32 %63, ptr %4, align 4
  invoke void @__cxa_end_catch()
          to label %72 unwind label %78

64:                                               ; preds = %51
  %65 = invoke noundef nonnull align 8 dereferenceable(8) ptr @_Z14verbose_streamv()
          to label %66 unwind label %60

66:                                               ; preds = %64
  %67 = invoke noundef nonnull align 8 dereferenceable(8) ptr @_ZStlsISt11char_traitsIcEERSt13basic_ostreamIcT_ES5_PKc(ptr noundef nonnull align 8 dereferenceable(8) %65, ptr noundef @.str)
          to label %68 unwind label %60

68:                                               ; preds = %66
  br label %69

69:                                               ; preds = %68, %58
  br label %70

70:                                               ; preds = %69, %47
  call void @__cxa_end_catch()
  br label %71

71:                                               ; preds = %70, %59
  ret void

72:                                               ; preds = %60
  br label %73

73:                                               ; preds = %72, %39
  %74 = load ptr, ptr %3, align 8
  %75 = load i32, ptr %4, align 4
  %76 = insertvalue { ptr, i32 } poison, ptr %74, 0
  %77 = insertvalue { ptr, i32 } %76, i32 %75, 1
  resume { ptr, i32 } %77

78:                                               ; preds = %60
  %79 = landingpad { ptr, i32 }
          catch ptr null
  %80 = extractvalue { ptr, i32 } %79, 0
  call void @__clang_call_terminate(ptr %80) #21
  unreachable
}