; Function Attrs: mustprogress uwtable
define hidden void @_ZN2dd10simplifierclEv(ptr noundef nonnull readonly align 8 captures(none) dereferenceable(8) %0) local_unnamed_addr #3 align 2 personality ptr @__gxx_personality_v0 {
  br label %.critedge2

.critedge2:                                       ; preds = %.critedge2.backedge, %1
  %2 = load ptr, ptr %0, align 8, !tbaa !3
  %3 = invoke noundef zeroext i1 @_ZN2dd6solver4doneEv(ptr noundef nonnull align 8 dereferenceable(208) %2)
          to label %4 unwind label %23

4:                                                ; preds = %.critedge2
  br i1 %3, label %.critedge, label %5

5:                                                ; preds = %4
  %6 = invoke noundef zeroext i1 @_ZN2dd10simplifier20simplify_linear_stepEb(ptr noundef nonnull align 8 dereferenceable(8) %0, i1 noundef zeroext true)
          to label %7 unwind label %23

7:                                                ; preds = %5
  br i1 %6, label %.critedge2.backedge, label %8

8:                                                ; preds = %7
  %9 = invoke noundef zeroext i1 @_ZN2dd10simplifier23simplify_elim_pure_stepEv(ptr noundef nonnull align 8 dereferenceable(8) %0)
          to label %10 unwind label %23

10:                                               ; preds = %8
  br i1 %9, label %.critedge2.backedge, label %11

11:                                               ; preds = %10
  %12 = invoke noundef zeroext i1 @_ZN2dd10simplifier16simplify_cc_stepEv(ptr noundef nonnull align 8 dereferenceable(8) %0)
          to label %13 unwind label %23

13:                                               ; preds = %11
  br i1 %12, label %.critedge2.backedge, label %14

14:                                               ; preds = %13
  %15 = invoke noundef zeroext i1 @_ZN2dd10simplifier18simplify_leaf_stepEv(ptr noundef nonnull align 8 dereferenceable(8) %0)
          to label %16 unwind label %23

16:                                               ; preds = %14
  br i1 %15, label %.critedge2.backedge, label %17

17:                                               ; preds = %16
  %18 = invoke noundef zeroext i1 @_ZN2dd10simplifier20simplify_linear_stepEb(ptr noundef nonnull align 8 dereferenceable(8) %0, i1 noundef zeroext false)
          to label %19 unwind label %23

19:                                               ; preds = %17
  br i1 %18, label %.critedge2.backedge, label %20

.critedge2.backedge:                              ; preds = %19, %16, %13, %10, %7, %22
  br label %.critedge2, !llvm.loop !9

20:                                               ; preds = %19
  %21 = invoke noundef zeroext i1 @_ZN2dd10simplifier14simplify_exlinEv(ptr noundef nonnull align 8 dereferenceable(8) %0)
          to label %22 unwind label %23

22:                                               ; preds = %20
  br i1 %21, label %.critedge2.backedge, label %.critedge

23:                                               ; preds = %20, %17, %14, %11, %8, %5, %.critedge2
  %24 = landingpad { ptr, i32 }
          catch ptr @_ZTIN2dd11pdd_manager7mem_outE
  %25 = extractvalue { ptr, i32 } %24, 1
  %26 = tail call i32 @llvm.eh.typeid.for.p0(ptr nonnull @_ZTIN2dd11pdd_manager7mem_outE) #23
  %27 = icmp eq i32 %25, %26
  br i1 %27, label %28, label %47

28:                                               ; preds = %23
  %29 = extractvalue { ptr, i32 } %24, 0
  %30 = tail call ptr @__cxa_begin_catch(ptr %29) #23
  %31 = invoke noundef i32 @_Z19get_verbosity_levelv()
          to label %32 unwind label %41

32:                                               ; preds = %28
  %.not = icmp eq i32 %31, 0
  br i1 %.not, label %_ZStlsISt11char_traitsIcEERSt13basic_ostreamIcT_ES5_PKc.exit8, label %33

33:                                               ; preds = %32
  %34 = invoke noundef zeroext i1 @_Z11is_threadedv()
          to label %35 unwind label %41

35:                                               ; preds = %33
  br i1 %34, label %36, label %43

36:                                               ; preds = %35
  invoke void @_Z12verbose_lockv()
          to label %37 unwind label %41

37:                                               ; preds = %36
  %38 = invoke noundef nonnull align 8 dereferenceable(8) ptr @_Z14verbose_streamv()
          to label %39 unwind label %41

39:                                               ; preds = %37
  %40 = invoke noundef nonnull align 8 dereferenceable(8) ptr @_ZSt16__ostream_insertIcSt11char_traitsIcEERSt13basic_ostreamIT_T0_ES6_PKS3_l(ptr noundef nonnull align 8 dereferenceable(8) %38, ptr noundef nonnull @.str, i64 noundef 18)
          to label %_ZStlsISt11char_traitsIcEERSt13basic_ostreamIcT_ES5_PKc.exit unwind label %41

_ZStlsISt11char_traitsIcEERSt13basic_ostreamIcT_ES5_PKc.exit: ; preds = %39
  invoke void @_Z14verbose_unlockv()
          to label %_ZStlsISt11char_traitsIcEERSt13basic_ostreamIcT_ES5_PKc.exit8 unwind label %41

41:                                               ; preds = %45, %39, %43, %_ZStlsISt11char_traitsIcEERSt13basic_ostreamIcT_ES5_PKc.exit, %37, %36, %33, %28
  %42 = landingpad { ptr, i32 }
          cleanup
  invoke void @__cxa_end_catch()
          to label %47 unwind label %48

43:                                               ; preds = %35
  %44 = invoke noundef nonnull align 8 dereferenceable(8) ptr @_Z14verbose_streamv()
          to label %45 unwind label %41

45:                                               ; preds = %43
  %46 = invoke noundef nonnull align 8 dereferenceable(8) ptr @_ZSt16__ostream_insertIcSt11char_traitsIcEERSt13basic_ostreamIT_T0_ES6_PKS3_l(ptr noundef nonnull align 8 dereferenceable(8) %44, ptr noundef nonnull @.str, i64 noundef 18)
          to label %_ZStlsISt11char_traitsIcEERSt13basic_ostreamIcT_ES5_PKc.exit8 unwind label %41

_ZStlsISt11char_traitsIcEERSt13basic_ostreamIcT_ES5_PKc.exit8: ; preds = %45, %_ZStlsISt11char_traitsIcEERSt13basic_ostreamIcT_ES5_PKc.exit, %32
  tail call void @__cxa_end_catch()
  br label %.critedge

.critedge:                                        ; preds = %22, %4, %_ZStlsISt11char_traitsIcEERSt13basic_ostreamIcT_ES5_PKc.exit8
  ret void

47:                                               ; preds = %41, %23
  %.merged = phi { ptr, i32 } [ %42, %41 ], [ %24, %23 ]
  resume { ptr, i32 } %.merged

48:                                               ; preds = %41
  %49 = landingpad { ptr, i32 }
          catch ptr null
  %50 = extractvalue { ptr, i32 } %49, 0
  tail call void @__clang_call_terminate(ptr %50) #24
  unreachable
}